target datalayout = "e-m:e-p270:32:32-p271:32:32-p272:64:64-i64:64-i128:128-f80:128-n8:16:32:64-S128"
target triple = "x86_64-pc-linux-gnu"

%struct.MPVEncContext = type { %struct.MpegEncContext, %struct.PutBitContext, i32, i32, ptr, i32, i32, i32, i32, i32, i32, i32, i32, ptr, ptr, %struct.FDCTDSPContext, %struct.MpegvideoEncDSPContext, %struct.PixblockDSPContext, %struct.MotionEstContext, i32, i32, ptr, ptr, ptr, ptr, ptr, ptr, [2 x [2 x [2 x ptr]]], [2 x ptr], [2 x [2 x ptr]], ptr, ptr, ptr, ptr, [3 x i64], i32, i32, i32, i32, i32, ptr, ptr, ptr, ptr, ptr, ptr, ptr, [12 x i32], ptr, ptr, ptr, ptr, ptr, ptr, ptr, ptr, [2 x i32], ptr, i32, i32, i32, i32, i32, i32, i32, i32, i32, i32, ptr, ptr, i32, i32, %struct.PutBitContext, %struct.PutBitContext, i32, i32, i32, i32, ptr, ptr, ptr, [2 x ptr], [2 x ptr], [2 x ptr], [2 x ptr], ptr, i32 }
%struct.MpegEncContext = type { ptr, i32, i32, i32, [12 x i32], i32, %struct.ScanTable, %struct.ScanTable, [64 x i8], [64 x i8], ptr, ptr, i32, i32, i32, i32, i32, i32, i32, i32, i32, i32, i32, i32, i32, i32, i32, i32, i32, i32, i32, i32, i64, i64, ptr, %struct.BufferPoolContext, i32, i32, %union.anon.0, i32, %struct.MPVWorkPicture, %struct.MPVWorkPicture, %struct.MPVWorkPicture, i32, [3 x i32], ptr, [3 x ptr], ptr, ptr, ptr, ptr, ptr, ptr, [3 x ptr], i32, ptr, ptr, ptr, ptr, %struct.ScratchpadContext, i32, i32, i32, i32, i32, i32, %struct.BlockDSPContext, %struct.H264ChromaContext, %struct.HpelDSPContext, %struct.IDCTDSPContext, %struct.QpelDSPContext, %struct.VideoDSPContext, %struct.H263DSPContext, ptr, [2 x [2 x ptr]], i32, i32, [2 x [4 x [2 x i32]]], [2 x [2 x i32]], [2 x [2 x [2 x i32]]], [2 x [64 x i16]], i32, i32, i32, i32, i32, [6 x i32], [6 x i32], [3 x ptr], ptr, [64 x i16], [64 x i16], [64 x i16], [64 x i16], i32, i32, %struct.GetBitContext, i32, i32, i32, i32, i32, i32, i32, i32, i32, i32, i32, i32, i32, i32, i32, i64, i64, i16, i16, i16, i16, i32, i32, i32, i32, i32, i32, i32, i32, i32, [3 x i32], i32, i32, i32, i32, i32, i32, %struct.GetBitContext, i32, [2 x [2 x i32]], i32, i32, i32, i32, i32, i32, i32, i32, i32, i32, i32, i32, i32, i32, [2 x i32], i32, i32, ptr, ptr, ptr, ptr, ptr, i32, i32, %struct.ERContext }
%struct.ScanTable = type { ptr, [64 x i8], [64 x i8] }
%struct.BufferPoolContext = type { ptr, ptr, ptr, ptr, ptr, i32, i32, i32 }
%union.anon.0 = type { [32 x ptr] }
%struct.MPVWorkPicture = type { [3 x ptr], [3 x i64], ptr, ptr, [2 x ptr], ptr, ptr, [2 x ptr], i32 }
%struct.ScratchpadContext = type { ptr, ptr, %union.anon.1, i32 }
%union.anon.1 = type { ptr }
%struct.BlockDSPContext = type { ptr, ptr, [2 x ptr] }
%struct.H264ChromaContext = type { [4 x ptr], [4 x ptr] }
%struct.HpelDSPContext = type { [4 x [4 x ptr]], [4 x [4 x ptr]], [4 x [4 x ptr]], [4 x ptr] }
%struct.IDCTDSPContext = type { ptr, ptr, ptr, ptr, ptr, ptr, [64 x i8], i32, i32 }
%struct.QpelDSPContext = type { [2 x [16 x ptr]], [2 x [16 x ptr]], [2 x [16 x ptr]] }
%struct.VideoDSPContext = type { ptr, ptr }
%struct.H263DSPContext = type { ptr, ptr }
%struct.GetBitContext = type { ptr, ptr, i32, i32, i32 }
%struct.ERContext = type { ptr, ptr, i32, ptr, i32, i32, i32, i64, i64, i32, i32, ptr, ptr, [3 x ptr], ptr, ptr, [2 x [4 x [2 x i32]]], %struct.ERPicture, %struct.ERPicture, %struct.ERPicture, [2 x ptr], [2 x ptr], i16, i16, i32, i32, ptr, ptr }
%struct.ERPicture = type { ptr, ptr, ptr, [2 x ptr], [2 x ptr], ptr, i32 }
%struct.FDCTDSPContext = type { ptr, ptr }
%struct.MpegvideoEncDSPContext = type { ptr, ptr, ptr, ptr, [4 x ptr], ptr }
%struct.PixblockDSPContext = type { ptr, ptr, ptr, ptr }
%struct.MotionEstContext = type { ptr, i32, i32, [4 x [2 x i32]], [4 x [2 x i32]], ptr, ptr, i32, i32, i32, i32, i32, i32, i32, i32, i32, i32, i32, i32, i32, i32, i32, i32, [4 x [4 x ptr]], [4 x [4 x ptr]], i32, i32, i64, i64, i32, [6 x ptr], [6 x ptr], [6 x ptr], [6 x ptr], [2 x [4 x ptr]], ptr, ptr, ptr, ptr, ptr, ptr, ptr, ptr, [64 x i32], [64 x i32] }
%struct.PutBitContext = type { i32, i32, ptr, ptr, ptr }
%struct.AVCodecContext = type { ptr, i32, i32, ptr, i32, i32, ptr, ptr, ptr, i64, i32, i32, ptr, i32, %struct.AVRational, %struct.AVRational, %struct.AVRational, i32, i32, i32, i32, i32, %struct.AVRational, i32, i32, i32, i32, i32, i32, i32, i32, i32, i32, i32, ptr, ptr, i32, float, float, float, float, float, float, float, float, float, i32, i32, i32, i32, i32, i32, i32, i32, i32, i32, i32, i32, ptr, ptr, ptr, i32, i32, i32, i32, i32, i32, i32, i32, i32, i32, %struct.AVChannelLayout, i32, i32, i32, i32, i32, i32, i32, i32, ptr, i32, i32, i32, float, float, i32, i32, i32, i32, i32, ptr, i64, i64, float, float, i32, i32, ptr, ptr, i32, i32, i32, i32, i32, ptr, ptr, ptr, ptr, i32, i32, [8 x i64], i32, i32, i32, i32, i32, i32, i32, ptr, ptr, i32, i32, i32, i32, i32, i32, i32, i32, i32, i32, ptr, ptr, i32, i32, ptr, ptr, ptr, ptr, i32, i32, i64, i32, i32, i64, ptr, i64, ptr, i32, ptr, i32 }
%struct.AVRational = type { i32, i32 }
%struct.AVChannelLayout = type { i32, i32, %union.anon.2, ptr }
%union.anon.2 = type { i64 }

; Function Attrs: nounwind uwtable
define internal i32 @pre_estimate_motion_thread(ptr noundef %0, ptr noundef %1) #1 {
  %3 = alloca ptr, align 8
  %4 = alloca ptr, align 8
  %5 = alloca ptr, align 8
  store ptr %0, ptr %3, align 8, !tbaa !125
  store ptr %1, ptr %4, align 8, !tbaa !259
  call void @llvm.lifetime.start.p0(i64 8, ptr %5) #14
  %6 = load ptr, ptr %4, align 8, !tbaa !259
  %7 = load ptr, ptr %6, align 8, !tbaa !259
  store ptr %7, ptr %5, align 8, !tbaa !4
  %8 = load ptr, ptr %5, align 8, !tbaa !4
  %9 = getelementptr inbounds nuw %struct.MPVEncContext, ptr %8, i32 0, i32 18
  %10 = getelementptr inbounds nuw %struct.MotionEstContext, ptr %9, i32 0, i32 15
  store i32 1, ptr %10, align 8, !tbaa !460
  %11 = load ptr, ptr %5, align 8, !tbaa !4
  %12 = getelementptr inbounds nuw %struct.MPVEncContext, ptr %11, i32 0, i32 0
  %13 = getelementptr inbounds nuw %struct.MpegEncContext, ptr %12, i32 0, i32 10
  %14 = load ptr, ptr %13, align 8, !tbaa !63
  %15 = getelementptr inbounds nuw %struct.AVCodecContext, ptr %14, i32 0, i32 54
  %16 = load i32, ptr %15, align 8, !tbaa !461
  %17 = load ptr, ptr %5, align 8, !tbaa !4
  %18 = getelementptr inbounds nuw %struct.MPVEncContext, ptr %17, i32 0, i32 18
  %19 = getelementptr inbounds nuw %struct.MotionEstContext, ptr %18, i32 0, i32 16
  store i32 %16, ptr %19, align 4, !tbaa !462
  %20 = load ptr, ptr %5, align 8, !tbaa !4
  %21 = getelementptr inbounds nuw %struct.MPVEncContext, ptr %20, i32 0, i32 0
  %22 = getelementptr inbounds nuw %struct.MpegEncContext, ptr %21, i32 0, i32 129
  store i32 1, ptr %22, align 4, !tbaa !463
  %23 = load ptr, ptr %5, align 8, !tbaa !4
  %24 = getelementptr inbounds nuw %struct.MPVEncContext, ptr %23, i32 0, i32 0
  %25 = getelementptr inbounds nuw %struct.MpegEncContext, ptr %24, i32 0, i32 37
  %26 = load i32, ptr %25, align 4, !tbaa !379
  %27 = sub nsw i32 %26, 1
  %28 = load ptr, ptr %5, align 8, !tbaa !4
  %29 = getelementptr inbounds nuw %struct.MPVEncContext, ptr %28, i32 0, i32 0
  %30 = getelementptr inbounds nuw %struct.MpegEncContext, ptr %29, i32 0, i32 83
  store i32 %27, ptr %30, align 8, !tbaa !403
  br label %31

31:                                               ; preds = %77, %2
  %32 = load ptr, ptr %5, align 8, !tbaa !4
  %33 = getelementptr inbounds nuw %struct.MPVEncContext, ptr %32, i32 0, i32 0
  %34 = getelementptr inbounds nuw %struct.MpegEncContext, ptr %33, i32 0, i32 83
  %35 = load i32, ptr %34, align 8, !tbaa !403
  %36 = load ptr, ptr %5, align 8, !tbaa !4
  %37 = getelementptr inbounds nuw %struct.MPVEncContext, ptr %36, i32 0, i32 0
  %38 = getelementptr inbounds nuw %struct.MpegEncContext, ptr %37, i32 0, i32 36
  %39 = load i32, ptr %38, align 8, !tbaa !378
  %40 = icmp sge i32 %35, %39
  br i1 %40, label %41, label %83

41:                                               ; preds = %31
  %42 = load ptr, ptr %5, align 8, !tbaa !4
  %43 = getelementptr inbounds nuw %struct.MPVEncContext, ptr %42, i32 0, i32 0
  %44 = getelementptr inbounds nuw %struct.MpegEncContext, ptr %43, i32 0, i32 25
  %45 = load i32, ptr %44, align 4, !tbaa !301
  %46 = sub nsw i32 %45, 1
  %47 = load ptr, ptr %5, align 8, !tbaa !4
  %48 = getelementptr inbounds nuw %struct.MPVEncContext, ptr %47, i32 0, i32 0
  %49 = getelementptr inbounds nuw %struct.MpegEncContext, ptr %48, i32 0, i32 82
  store i32 %46, ptr %49, align 4, !tbaa !404
  br label %50

50:                                               ; preds = %67, %41
  %51 = load ptr, ptr %5, align 8, !tbaa !4
  %52 = getelementptr inbounds nuw %struct.MPVEncContext, ptr %51, i32 0, i32 0
  %53 = getelementptr inbounds nuw %struct.MpegEncContext, ptr %52, i32 0, i32 82
  %54 = load i32, ptr %53, align 4, !tbaa !404
  %55 = icmp sge i32 %54, 0
  br i1 %55, label %56, label %73

56:                                               ; preds = %50
  %57 = load ptr, ptr %5, align 8, !tbaa !4
  %58 = load ptr, ptr %5, align 8, !tbaa !4
  %59 = getelementptr inbounds nuw %struct.MPVEncContext, ptr %58, i32 0, i32 0
  %60 = getelementptr inbounds nuw %struct.MpegEncContext, ptr %59, i32 0, i32 82
  %61 = load i32, ptr %60, align 4, !tbaa !404
  %62 = load ptr, ptr %5, align 8, !tbaa !4
  %63 = getelementptr inbounds nuw %struct.MPVEncContext, ptr %62, i32 0, i32 0
  %64 = getelementptr inbounds nuw %struct.MpegEncContext, ptr %63, i32 0, i32 83
  %65 = load i32, ptr %64, align 8, !tbaa !403
  %66 = call i32 @ff_pre_estimate_p_frame_motion(ptr noundef %57, i32 noundef %61, i32 noundef %65)
  br label %67

67:                                               ; preds = %56
  %68 = load ptr, ptr %5, align 8, !tbaa !4
  %69 = getelementptr inbounds nuw %struct.MPVEncContext, ptr %68, i32 0, i32 0
  %70 = getelementptr inbounds nuw %struct.MpegEncContext, ptr %69, i32 0, i32 82
  %71 = load i32, ptr %70, align 4, !tbaa !404
  %72 = add nsw i32 %71, -1
  store i32 %72, ptr %70, align 4, !tbaa !404
  br label %50, !llvm.loop !464

73:                                               ; preds = %50
  %74 = load ptr, ptr %5, align 8, !tbaa !4
  %75 = getelementptr inbounds nuw %struct.MPVEncContext, ptr %74, i32 0, i32 0
  %76 = getelementptr inbounds nuw %struct.MpegEncContext, ptr %75, i32 0, i32 129
  store i32 0, ptr %76, align 4, !tbaa !463
  br label %77

77:                                               ; preds = %73
  %78 = load ptr, ptr %5, align 8, !tbaa !4
  %79 = getelementptr inbounds nuw %struct.MPVEncContext, ptr %78, i32 0, i32 0
  %80 = getelementptr inbounds nuw %struct.MpegEncContext, ptr %79, i32 0, i32 83
  %81 = load i32, ptr %80, align 8, !tbaa !403
  %82 = add nsw i32 %81, -1
  store i32 %82, ptr %80, align 8, !tbaa !403
  br label %31, !llvm.loop !465

83:                                               ; preds = %31
  %84 = load ptr, ptr %5, align 8, !tbaa !4
  %85 = getelementptr inbounds nuw %struct.MPVEncContext, ptr %84, i32 0, i32 18
  %86 = getelementptr inbounds nuw %struct.MotionEstContext, ptr %85, i32 0, i32 15
  store i32 0, ptr %86, align 8, !tbaa !460
  call void @llvm.lifetime.end.p0(i64 8, ptr %5) #14
  ret i32 0
}