; Function Attrs: nounwind uwtable
define internal noundef i32 @pre_estimate_motion_thread(ptr readnone captures(none) %0, ptr noundef readonly captures(none) %1) #1 {
  %3 = load ptr, ptr %1, align 8, !tbaa !234
  %4 = getelementptr inbounds nuw i8, ptr %3, i64 5152
  store i32 1, ptr %4, align 8, !tbaa !438
  %5 = getelementptr inbounds nuw i8, ptr %3, i64 472
  %6 = load ptr, ptr %5, align 8, !tbaa !56
  %7 = getelementptr inbounds nuw i8, ptr %6, i64 272
  %8 = load i32, ptr %7, align 8, !tbaa !439
  %9 = getelementptr inbounds nuw i8, ptr %3, i64 5156
  store i32 %8, ptr %9, align 4, !tbaa !440
  %10 = getelementptr inbounds nuw i8, ptr %3, i64 4140
  store i32 1, ptr %10, align 4, !tbaa !441
  %11 = getelementptr inbounds nuw i8, ptr %3, i64 652
  %12 = getelementptr inbounds nuw i8, ptr %3, i64 3352
  %13 = getelementptr inbounds nuw i8, ptr %3, i64 648
  %storemerge.in23 = load i32, ptr %11, align 4, !tbaa !49
  %storemerge24 = add nsw i32 %storemerge.in23, -1
  store i32 %storemerge24, ptr %12, align 8, !tbaa !378
  %14 = load i32, ptr %13, align 8, !tbaa !353
  %.not.not25 = icmp sgt i32 %storemerge.in23, %14
  br i1 %.not.not25, label %.lr.ph27, label %._crit_edge28

.lr.ph27:                                         ; preds = %2
  %15 = getelementptr inbounds nuw i8, ptr %3, i64 540
  %16 = getelementptr inbounds nuw i8, ptr %3, i64 3348
  %17 = load i32, ptr %15, align 4, !tbaa !49
  %18 = icmp sgt i32 %17, 0
  br i1 %18, label %.lr.ph27.split, label %.lr.ph27.split.us

.lr.ph27.split.us:                                ; preds = %.lr.ph27
  %smin = tail call i32 @llvm.smin.i32(i32 %storemerge24, i32 %14)
  %19 = add i32 %smin, -1
  %storemerge1921.us.le = add nsw i32 %17, -1
  store i32 %storemerge1921.us.le, ptr %16, align 4, !tbaa !379
  store i32 0, ptr %10, align 4, !tbaa !441
  store i32 %19, ptr %12, align 8, !tbaa !49
  br label %._crit_edge28

.lr.ph27.splitthread-pre-split:                   ; preds = %._crit_edge
  %storemerge19.in20.pr = load i32, ptr %15, align 4, !tbaa !49
  br label %.lr.ph27.split

.lr.ph27.split:                                   ; preds = %.lr.ph27, %.lr.ph27.splitthread-pre-split
  %storemerge19.in20 = phi i32 [ %storemerge19.in20.pr, %.lr.ph27.splitthread-pre-split ], [ %17, %.lr.ph27 ]
  %20 = phi i32 [ %25, %.lr.ph27.splitthread-pre-split ], [ %14, %.lr.ph27 ]
  %storemerge.in30 = phi i32 [ %storemerge, %.lr.ph27.splitthread-pre-split ], [ %storemerge24, %.lr.ph27 ]
  %storemerge1921 = add nsw i32 %storemerge19.in20, -1
  store i32 %storemerge1921, ptr %16, align 4, !tbaa !379
  %21 = icmp sgt i32 %storemerge19.in20, 0
  br i1 %21, label %.lr.ph, label %._crit_edge

.lr.ph:                                           ; preds = %.lr.ph27.split, %.lr.ph
  %storemerge1922 = phi i32 [ %storemerge19, %.lr.ph ], [ %storemerge1921, %.lr.ph27.split ]
  %22 = load i32, ptr %12, align 8, !tbaa !378
  %23 = tail call i32 @ff_pre_estimate_p_frame_motion(ptr noundef nonnull %3, i32 noundef %storemerge1922, i32 noundef %22) #16
  %storemerge19.in = load i32, ptr %16, align 4, !tbaa !49
  %storemerge19 = add nsw i32 %storemerge19.in, -1
  store i32 %storemerge19, ptr %16, align 4, !tbaa !379
  %24 = icmp sgt i32 %storemerge19.in, 0
  br i1 %24, label %.lr.ph, label %._crit_edge.loopexit, !llvm.loop !442

._crit_edge.loopexit:                             ; preds = %.lr.ph
  %storemerge.in.pre = load i32, ptr %12, align 4, !tbaa !49
  %.pre = load i32, ptr %13, align 8, !tbaa !353
  br label %._crit_edge

._crit_edge:                                      ; preds = %._crit_edge.loopexit, %.lr.ph27.split
  %25 = phi i32 [ %.pre, %._crit_edge.loopexit ], [ %20, %.lr.ph27.split ]
  %storemerge.in = phi i32 [ %storemerge.in.pre, %._crit_edge.loopexit ], [ %storemerge.in30, %.lr.ph27.split ]
  store i32 0, ptr %10, align 4, !tbaa !441
  %storemerge = add nsw i32 %storemerge.in, -1
  store i32 %storemerge, ptr %12, align 8, !tbaa !378
  %.not.not = icmp sgt i32 %storemerge.in, %25
  br i1 %.not.not, label %.lr.ph27.splitthread-pre-split, label %._crit_edge28, !llvm.loop !443

._crit_edge28:                                    ; preds = %._crit_edge, %.lr.ph27.split.us, %2
  store i32 0, ptr %4, align 8, !tbaa !438
  ret i32 0
}